; ModuleID = '9/102.c'
source_filename = "9/102.c"
target datalayout = "e-m:e-p270:32:32-p271:32:32-p272:64:64-i64:64-f80:128-n8:16:32:64-S128"
target triple = "x86_64-pc-linux-gnu"

%struct.people = type { [10 x i8], i32 }

@.str = private unnamed_addr constant [3 x i8] c"%d\00", align 1
@.str.1 = private unnamed_addr constant [6 x i8] c"%s %d\00", align 1
@.str.2 = private unnamed_addr constant [4 x i8] c"%s\0A\00", align 1

; Function Attrs: noinline nounwind uwtable
define dso_local void @main() #0 {
  %1 = alloca [100 x %struct.people], align 16
  %2 = alloca [100 x %struct.people], align 16
  %3 = alloca %struct.people, align 4
  %4 = alloca i32, align 4
  %5 = alloca i32, align 4
  %6 = alloca i32, align 4
  %7 = alloca i32, align 4
  store i32 0, i32* %6, align 4
  store i32 0, i32* %7, align 4
  %8 = call i32 (i8*, ...) @__isoc99_scanf(i8* getelementptr inbounds ([3 x i8], [3 x i8]* @.str, i64 0, i64 0), i32* %5)
  store i32 0, i32* %4, align 4
  br label %9

9:                                                ; preds = %24, %0
  %10 = load i32, i32* %4, align 4
  %11 = load i32, i32* %5, align 4
  %12 = icmp slt i32 %10, %11
  br i1 %12, label %13, label %27

13:                                               ; preds = %9
  %14 = load i32, i32* %4, align 4
  %15 = sext i32 %14 to i64
  %16 = getelementptr inbounds [100 x %struct.people], [100 x %struct.people]* %1, i64 0, i64 %15
  %17 = getelementptr inbounds %struct.people, %struct.people* %16, i32 0, i32 0
  %18 = getelementptr inbounds [10 x i8], [10 x i8]* %17, i64 0, i64 0
  %19 = load i32, i32* %4, align 4
  %20 = sext i32 %19 to i64
  %21 = getelementptr inbounds [100 x %struct.people], [100 x %struct.people]* %1, i64 0, i64 %20
  %22 = getelementptr inbounds %struct.people, %struct.people* %21, i32 0, i32 1
  %23 = call i32 (i8*, ...) @__isoc99_scanf(i8* getelementptr inbounds ([6 x i8], [6 x i8]* @.str.1, i64 0, i64 0), i8* %18, i32* %22)
  br label %24

24:                                               ; preds = %13
  %25 = load i32, i32* %4, align 4
  %26 = add nsw i32 %25, 1
  store i32 %26, i32* %4, align 4
  br label %9

27:                                               ; preds = %9
  store i32 0, i32* %4, align 4
  br label %28

28:                                               ; preds = %51, %27
  %29 = load i32, i32* %4, align 4
  %30 = load i32, i32* %5, align 4
  %31 = icmp slt i32 %29, %30
  br i1 %31, label %32, label %54

32:                                               ; preds = %28
  %33 = load i32, i32* %4, align 4
  %34 = sext i32 %33 to i64
  %35 = getelementptr inbounds [100 x %struct.people], [100 x %struct.people]* %1, i64 0, i64 %34
  %36 = getelementptr inbounds %struct.people, %struct.people* %35, i32 0, i32 1
  %37 = load i32, i32* %36, align 4
  %38 = icmp sge i32 %37, 60
  br i1 %38, label %39, label %50

39:                                               ; preds = %32
  %40 = load i32, i32* %6, align 4
  %41 = sext i32 %40 to i64
  %42 = getelementptr inbounds [100 x %struct.people], [100 x %struct.people]* %2, i64 0, i64 %41
  %43 = load i32, i32* %4, align 4
  %44 = sext i32 %43 to i64
  %45 = getelementptr inbounds [100 x %struct.people], [100 x %struct.people]* %1, i64 0, i64 %44
  %46 = bitcast %struct.people* %42 to i8*
  %47 = bitcast %struct.people* %45 to i8*
  call void @llvm.memcpy.p0i8.p0i8.i64(i8* align 16 %46, i8* align 16 %47, i64 16, i1 false)
  %48 = load i32, i32* %6, align 4
  %49 = add nsw i32 %48, 1
  store i32 %49, i32* %6, align 4
  br label %50

50:                                               ; preds = %39, %32
  br label %51

51:                                               ; preds = %50
  %52 = load i32, i32* %4, align 4
  %53 = add nsw i32 %52, 1
  store i32 %53, i32* %4, align 4
  br label %28

54:                                               ; preds = %28
  store i32 0, i32* %4, align 4
  br label %55

55:                                               ; preds = %78, %54
  %56 = load i32, i32* %4, align 4
  %57 = load i32, i32* %5, align 4
  %58 = icmp slt i32 %56, %57
  br i1 %58, label %59, label %81

59:                                               ; preds = %55
  %60 = load i32, i32* %4, align 4
  %61 = sext i32 %60 to i64
  %62 = getelementptr inbounds [100 x %struct.people], [100 x %struct.people]* %1, i64 0, i64 %61
  %63 = getelementptr inbounds %struct.people, %struct.people* %62, i32 0, i32 1
  %64 = load i32, i32* %63, align 4
  %65 = icmp slt i32 %64, 60
  br i1 %65, label %66, label %77

66:                                               ; preds = %59
  %67 = load i32, i32* %6, align 4
  %68 = sext i32 %67 to i64
  %69 = getelementptr inbounds [100 x %struct.people], [100 x %struct.people]* %2, i64 0, i64 %68
  %70 = load i32, i32* %4, align 4
  %71 = sext i32 %70 to i64
  %72 = getelementptr inbounds [100 x %struct.people], [100 x %struct.people]* %1, i64 0, i64 %71
  %73 = bitcast %struct.people* %69 to i8*
  %74 = bitcast %struct.people* %72 to i8*
  call void @llvm.memcpy.p0i8.p0i8.i64(i8* align 16 %73, i8* align 16 %74, i64 16, i1 false)
  %75 = load i32, i32* %6, align 4
  %76 = add nsw i32 %75, 1
  store i32 %76, i32* %6, align 4
  br label %77

77:                                               ; preds = %66, %59
  br label %78

78:                                               ; preds = %77
  %79 = load i32, i32* %4, align 4
  %80 = add nsw i32 %79, 1
  store i32 %80, i32* %4, align 4
  br label %55

81:                                               ; preds = %55
  store i32 0, i32* %7, align 4
  br label %82

82:                                               ; preds = %142, %81
  %83 = load i32, i32* %7, align 4
  %84 = load i32, i32* %6, align 4
  %85 = sub nsw i32 %84, 1
  %86 = icmp slt i32 %83, %85
  br i1 %86, label %87, label %145

87:                                               ; preds = %82
  store i32 0, i32* %4, align 4
  br label %88

88:                                               ; preds = %138, %87
  %89 = load i32, i32* %4, align 4
  %90 = load i32, i32* %6, align 4
  %91 = sub nsw i32 %90, 1
  %92 = load i32, i32* %7, align 4
  %93 = sub nsw i32 %91, %92
  %94 = icmp slt i32 %89, %93
  br i1 %94, label %95, label %141

95:                                               ; preds = %88
  %96 = load i32, i32* %4, align 4
  %97 = sext i32 %96 to i64
  %98 = getelementptr inbounds [100 x %struct.people], [100 x %struct.people]* %2, i64 0, i64 %97
  %99 = getelementptr inbounds %struct.people, %struct.people* %98, i32 0, i32 1
  %100 = load i32, i32* %99, align 4
  %101 = load i32, i32* %4, align 4
  %102 = add nsw i32 %101, 1
  %103 = sext i32 %102 to i64
  %104 = getelementptr inbounds [100 x %struct.people], [100 x %struct.people]* %2, i64 0, i64 %103
  %105 = getelementptr inbounds %struct.people, %struct.people* %104, i32 0, i32 1
  %106 = load i32, i32* %105, align 4
  %107 = icmp slt i32 %100, %106
  br i1 %107, label %108, label %137

108:                                              ; preds = %95
  %109 = load i32, i32* %4, align 4
  %110 = add nsw i32 %109, 1
  %111 = sext i32 %110 to i64
  %112 = getelementptr inbounds [100 x %struct.people], [100 x %struct.people]* %2, i64 0, i64 %111
  %113 = getelementptr inbounds %struct.people, %struct.people* %112, i32 0, i32 1
  %114 = load i32, i32* %113, align 4
  %115 = icmp sge i32 %114, 60
  br i1 %115, label %116, label %137

116:                                              ; preds = %108
  %117 = load i32, i32* %4, align 4
  %118 = sext i32 %117 to i64
  %119 = getelementptr inbounds [100 x %struct.people], [100 x %struct.people]* %2, i64 0, i64 %118
  %120 = bitcast %struct.people* %3 to i8*
  %121 = bitcast %struct.people* %119 to i8*
  call void @llvm.memcpy.p0i8.p0i8.i64(i8* align 4 %120, i8* align 16 %121, i64 16, i1 false)
  %122 = load i32, i32* %4, align 4
  %123 = sext i32 %122 to i64
  %124 = getelementptr inbounds [100 x %struct.people], [100 x %struct.people]* %2, i64 0, i64 %123
  %125 = load i32, i32* %4, align 4
  %126 = add nsw i32 %125, 1
  %127 = sext i32 %126 to i64
  %128 = getelementptr inbounds [100 x %struct.people], [100 x %struct.people]* %2, i64 0, i64 %127
  %129 = bitcast %struct.people* %124 to i8*
  %130 = bitcast %struct.people* %128 to i8*
  call void @llvm.memcpy.p0i8.p0i8.i64(i8* align 16 %129, i8* align 16 %130, i64 16, i1 false)
  %131 = load i32, i32* %4, align 4
  %132 = add nsw i32 %131, 1
  %133 = sext i32 %132 to i64
  %134 = getelementptr inbounds [100 x %struct.people], [100 x %struct.people]* %2, i64 0, i64 %133
  %135 = bitcast %struct.people* %134 to i8*
  %136 = bitcast %struct.people* %3 to i8*
  call void @llvm.memcpy.p0i8.p0i8.i64(i8* align 16 %135, i8* align 4 %136, i64 16, i1 false)
  br label %137

137:                                              ; preds = %116, %108, %95
  br label %138

138:                                              ; preds = %137
  %139 = load i32, i32* %4, align 4
  %140 = add nsw i32 %139, 1
  store i32 %140, i32* %4, align 4
  br label %88

141:                                              ; preds = %88
  br label %142

142:                                              ; preds = %141
  %143 = load i32, i32* %7, align 4
  %144 = add nsw i32 %143, 1
  store i32 %144, i32* %7, align 4
  br label %82

145:                                              ; preds = %82
  store i32 0, i32* %4, align 4
  br label %146

146:                                              ; preds = %157, %145
  %147 = load i32, i32* %4, align 4
  %148 = load i32, i32* %5, align 4
  %149 = icmp slt i32 %147, %148
  br i1 %149, label %150, label %160

150:                                              ; preds = %146
  %151 = load i32, i32* %4, align 4
  %152 = sext i32 %151 to i64
  %153 = getelementptr inbounds [100 x %struct.people], [100 x %struct.people]* %2, i64 0, i64 %152
  %154 = getelementptr inbounds %struct.people, %struct.people* %153, i32 0, i32 0
  %155 = getelementptr inbounds [10 x i8], [10 x i8]* %154, i64 0, i64 0
  %156 = call i32 (i8*, ...) @printf(i8* getelementptr inbounds ([4 x i8], [4 x i8]* @.str.2, i64 0, i64 0), i8* %155)
  br label %157

157:                                              ; preds = %150
  %158 = load i32, i32* %4, align 4
  %159 = add nsw i32 %158, 1
  store i32 %159, i32* %4, align 4
  br label %146

160:                                              ; preds = %146
  ret void
}

declare dso_local i32 @__isoc99_scanf(i8*, ...) #1

; Function Attrs: argmemonly nounwind willreturn
declare void @llvm.memcpy.p0i8.p0i8.i64(i8* noalias nocapture writeonly, i8* noalias nocapture readonly, i64, i1 immarg) #2

declare dso_local i32 @printf(i8*, ...) #1


!llvm.module.flags = !{!0}
!llvm.ident = !{!1}

!0 = !{i32 1, !"wchar_size", i32 4}
!1 = !{!"clang version 10.0.0-4ubuntu1 "}
